target datalayout = "e-m:e-p270:32:32-p271:32:32-p272:64:64-i64:64-i128:128-f80:128-n8:16:32:64-S128"
target triple = "x86_64-pc-linux-gnu"

@.str.102 = private unnamed_addr constant [6 x i8] c"#true\00", align 1
@.str.103 = private unnamed_addr constant [7 x i8] c"#false\00", align 1

; Function Attrs: nounwind uwtable
define dso_local ptr @ldbRedisProtocolToHuman_Bool(ptr noundef %0, ptr noundef %1) #0 {
  %3 = alloca ptr, align 8
  %4 = alloca ptr, align 8
  %5 = alloca ptr, align 8
  store ptr %0, ptr %3, align 8, !tbaa !100
  store ptr %1, ptr %4, align 8, !tbaa !16
  call void @llvm.lifetime.start.p0(i64 8, ptr %5) #14
  %6 = load ptr, ptr %4, align 8, !tbaa !16
  %7 = getelementptr inbounds i8, ptr %6, i64 1
  %8 = call ptr @strchr(ptr noundef %7, i32 noundef 13) #13
  store ptr %8, ptr %5, align 8, !tbaa !16
  %9 = load ptr, ptr %4, align 8, !tbaa !16
  %10 = getelementptr inbounds i8, ptr %9, i64 1
  %11 = load i8, ptr %10, align 1, !tbaa !21
  %12 = sext i8 %11 to i32
  %13 = icmp eq i32 %12, 116
  br i1 %13, label %14, label %19

14:                                               ; preds = %2
  %15 = load ptr, ptr %3, align 8, !tbaa !100
  %16 = load ptr, ptr %15, align 8, !tbaa !16
  %17 = call ptr @sdscatlen(ptr noundef %16, ptr noundef @.str.102, i64 noundef 5)
  %18 = load ptr, ptr %3, align 8, !tbaa !100
  store ptr %17, ptr %18, align 8, !tbaa !16
  br label %24

19:                                               ; preds = %2
  %20 = load ptr, ptr %3, align 8, !tbaa !100
  %21 = load ptr, ptr %20, align 8, !tbaa !16
  %22 = call ptr @sdscatlen(ptr noundef %21, ptr noundef @.str.103, i64 noundef 6)
  %23 = load ptr, ptr %3, align 8, !tbaa !100
  store ptr %22, ptr %23, align 8, !tbaa !16
  br label %24

24:                                               ; preds = %19, %14
  %25 = load ptr, ptr %5, align 8, !tbaa !16
  %26 = getelementptr inbounds i8, ptr %25, i64 2
  call void @llvm.lifetime.end.p0(i64 8, ptr %5) #14
  ret ptr %26
}