; Function Attrs: nounwind uwtable
define dso_local nonnull ptr @ldbRedisProtocolToHuman_Bool(ptr noundef captures(none) %0, ptr noundef readonly %1) local_unnamed_addr #0 {
  %3 = getelementptr inbounds nuw i8, ptr %1, i64 1
  %4 = tail call ptr @strchr(ptr noundef nonnull dereferenceable(1) %3, i32 noundef 13) #18
  %5 = load i8, ptr %3, align 1, !tbaa !13
  %6 = icmp eq i8 %5, 116
  %7 = load ptr, ptr %0, align 8, !tbaa !92
  br i1 %6, label %8, label %10

8:                                                ; preds = %2
  %9 = tail call ptr @sdscatlen(ptr noundef %7, ptr noundef nonnull @.str.102, i64 noundef 5) #19
  br label %12

10:                                               ; preds = %2
  %11 = tail call ptr @sdscatlen(ptr noundef %7, ptr noundef nonnull @.str.103, i64 noundef 6) #19
  br label %12

12:                                               ; preds = %10, %8
  %storemerge = phi ptr [ %11, %10 ], [ %9, %8 ]
  store ptr %storemerge, ptr %0, align 8, !tbaa !92
  %13 = getelementptr inbounds nuw i8, ptr %4, i64 2
  ret ptr %13
}